target datalayout = "e-m:e-p270:32:32-p271:32:32-p272:64:64-i64:64-i128:128-f80:128-n8:16:32:64-S128"
target triple = "x86_64-pc-linux-gnu"

%struct.CVodeMemRec = type { double, ptr, ptr, i32, i32, i32, double, double, ptr, i32, ptr, ptr, i32, ptr, i32, i32, double, double, ptr, i32, i32, i32, ptr, ptr, ptr, i32, i32, ptr, ptr, ptr, i32, double, i32, i32, double, ptr, ptr, i32, ptr, ptr, i32, i32, i32, double, ptr, ptr, [13 x ptr], ptr, ptr, ptr, ptr, ptr, [13 x ptr], ptr, ptr, ptr, ptr, [13 x ptr], ptr, ptr, ptr, ptr, ptr, i32, [13 x ptr], ptr, ptr, ptr, ptr, ptr, i32, double, i32, i32, i32, i32, i32, double, double, double, double, double, double, double, double, [14 x double], [6 x double], [13 x double], double, double, double, double, double, double, double, double, double, double, double, i32, ptr, i32, i64, i32, i32, i32, i32, i32, double, double, double, i64, i64, i64, i64, i64, i64, i64, i64, i64, ptr, i64, i64, ptr, i64, i64, i64, i64, i64, i64, i32, i64, i64, i64, i64, i64, i64, double, double, double, ptr, ptr, ptr, ptr, ptr, i32, i32, i64, double, double, double, i32, double, i32, i32, i32, i32, i32, i32, i32, i32, i32, i32, i32, i32, i32, i32, i32, i32, ptr, ptr, ptr, i32, [6 x [4 x double]], i32, i64, ptr, i32, ptr, ptr, double, double, double, ptr, ptr, ptr, double, double, i32, i32, i64, ptr, i32, i32, ptr, i32 }
%struct.CVDlsMemRec = type { i32, i64, i64, i64, i64, i32, ptr, ptr, ptr, ptr, ptr, ptr, ptr, i64, i64, i64, i64 }
%struct.CVadjMemRec = type { double, double, i32, i32, double, ptr, i32, ptr, i32, ptr, i32, ptr, i64, ptr, i64, i32, ptr, ptr, ptr, ptr, i32, i32, i32, i32, [13 x ptr], [13 x ptr], [13 x double], ptr, ptr, i64 }
%struct.CVodeBMemRec = type { i32, double, ptr, i32, i32, ptr, ptr, ptr, ptr, ptr, ptr, ptr, ptr, ptr, double, ptr, ptr }
%struct.CVDlsMemRecB = type { i32, ptr, ptr, ptr, ptr }

@.str = private unnamed_addr constant [6 x i8] c"CVDLS\00", align 1
@.str.2 = private unnamed_addr constant [27 x i8] c"Integrator memory is NULL.\00", align 1
@.str.3 = private unnamed_addr constant [30 x i8] c"Linear solver memory is NULL.\00", align 1
@.str.4 = private unnamed_addr constant [18 x i8] c"CVDlsSetBandJacFn\00", align 1
@.str.5 = private unnamed_addr constant [7 x i8] c"CVSDLS\00", align 1
@.str.19 = private unnamed_addr constant [55 x i8] c"Illegal attempt to call before calling CVodeAdjMalloc.\00", align 1
@.str.20 = private unnamed_addr constant [25 x i8] c"Illegal value for which.\00", align 1
@.str.21 = private unnamed_addr constant [59 x i8] c"Linear solver memory is NULL for the backward integration.\00", align 1
@.str.24 = private unnamed_addr constant [20 x i8] c"CVDlsSetBandJacFnBS\00", align 1

; Function Attrs: nounwind uwtable
define i32 @CVDlsSetBandJacFn(ptr noundef %0, ptr noundef %1) #0 {
  %3 = alloca i32, align 4
  %4 = alloca ptr, align 8
  %5 = alloca ptr, align 8
  %6 = alloca ptr, align 8
  %7 = alloca ptr, align 8
  %8 = alloca i32, align 4
  store ptr %0, ptr %4, align 8, !tbaa !3
  store ptr %1, ptr %5, align 8, !tbaa !3
  call void @llvm.lifetime.start.p0(i64 8, ptr %6) #5
  call void @llvm.lifetime.start.p0(i64 8, ptr %7) #5
  %9 = load ptr, ptr %4, align 8, !tbaa !3
  %10 = icmp eq ptr %9, null
  br i1 %10, label %11, label %12

11:                                               ; preds = %2
  call void (ptr, i32, ptr, ptr, ptr, ...) @cvProcessError(ptr noundef null, i32 noundef -1, ptr noundef @.str, ptr noundef @.str.4, ptr noundef @.str.2)
  store i32 -1, ptr %3, align 4
  store i32 1, ptr %8, align 4
  br label %36

12:                                               ; preds = %2
  %13 = load ptr, ptr %4, align 8, !tbaa !3
  store ptr %13, ptr %6, align 8, !tbaa !7
  %14 = load ptr, ptr %6, align 8, !tbaa !7
  %15 = getelementptr inbounds nuw %struct.CVodeMemRec, ptr %14, i32 0, i32 144
  %16 = load ptr, ptr %15, align 8, !tbaa !9
  %17 = icmp eq ptr %16, null
  br i1 %17, label %18, label %20

18:                                               ; preds = %12
  %19 = load ptr, ptr %6, align 8, !tbaa !7
  call void (ptr, i32, ptr, ptr, ptr, ...) @cvProcessError(ptr noundef %19, i32 noundef -2, ptr noundef @.str, ptr noundef @.str.4, ptr noundef @.str.3)
  store i32 -2, ptr %3, align 4
  store i32 1, ptr %8, align 4
  br label %36

20:                                               ; preds = %12
  %21 = load ptr, ptr %6, align 8, !tbaa !7
  %22 = getelementptr inbounds nuw %struct.CVodeMemRec, ptr %21, i32 0, i32 144
  %23 = load ptr, ptr %22, align 8, !tbaa !9
  store ptr %23, ptr %7, align 8, !tbaa !21
  %24 = load ptr, ptr %5, align 8, !tbaa !3
  %25 = icmp ne ptr %24, null
  br i1 %25, label %26, label %32

26:                                               ; preds = %20
  %27 = load ptr, ptr %7, align 8, !tbaa !21
  %28 = getelementptr inbounds nuw %struct.CVDlsMemRec, ptr %27, i32 0, i32 5
  store i32 0, ptr %28, align 8, !tbaa !23
  %29 = load ptr, ptr %5, align 8, !tbaa !3
  %30 = load ptr, ptr %7, align 8, !tbaa !21
  %31 = getelementptr inbounds nuw %struct.CVDlsMemRec, ptr %30, i32 0, i32 7
  store ptr %29, ptr %31, align 8, !tbaa !27
  br label %35

32:                                               ; preds = %20
  %33 = load ptr, ptr %7, align 8, !tbaa !21
  %34 = getelementptr inbounds nuw %struct.CVDlsMemRec, ptr %33, i32 0, i32 5
  store i32 1, ptr %34, align 8, !tbaa !23
  br label %35

35:                                               ; preds = %32, %26
  store i32 0, ptr %3, align 4
  store i32 1, ptr %8, align 4
  br label %36

36:                                               ; preds = %35, %18, %11
  call void @llvm.lifetime.end.p0(i64 8, ptr %7) #5
  call void @llvm.lifetime.end.p0(i64 8, ptr %6) #5
  %37 = load i32, ptr %3, align 4
  ret i32 %37
}

; Function Attrs: nounwind uwtable
define i32 @CVDlsSetBandJacFnBS(ptr noundef %0, i32 noundef %1, ptr noundef %2) #0 {
  %4 = alloca i32, align 4
  %5 = alloca ptr, align 8
  %6 = alloca i32, align 4
  %7 = alloca ptr, align 8
  %8 = alloca ptr, align 8
  %9 = alloca ptr, align 8
  %10 = alloca ptr, align 8
  %11 = alloca ptr, align 8
  %12 = alloca ptr, align 8
  %13 = alloca i32, align 4
  %14 = alloca i32, align 4
  store ptr %0, ptr %5, align 8, !tbaa !3
  store i32 %1, ptr %6, align 4, !tbaa !43
  store ptr %2, ptr %7, align 8, !tbaa !3
  call void @llvm.lifetime.start.p0(i64 8, ptr %8) #5
  call void @llvm.lifetime.start.p0(i64 8, ptr %9) #5
  call void @llvm.lifetime.start.p0(i64 8, ptr %10) #5
  call void @llvm.lifetime.start.p0(i64 8, ptr %11) #5
  call void @llvm.lifetime.start.p0(i64 8, ptr %12) #5
  call void @llvm.lifetime.start.p0(i64 4, ptr %13) #5
  %15 = load ptr, ptr %5, align 8, !tbaa !3
  %16 = icmp eq ptr %15, null
  br i1 %16, label %17, label %18

17:                                               ; preds = %3
  call void (ptr, i32, ptr, ptr, ptr, ...) @cvProcessError(ptr noundef null, i32 noundef -1, ptr noundef @.str.5, ptr noundef @.str.24, ptr noundef @.str.2)
  store i32 -1, ptr %4, align 4
  store i32 1, ptr %14, align 4
  br label %82

18:                                               ; preds = %3
  %19 = load ptr, ptr %5, align 8, !tbaa !3
  store ptr %19, ptr %8, align 8, !tbaa !7
  %20 = load ptr, ptr %8, align 8, !tbaa !7
  %21 = getelementptr inbounds nuw %struct.CVodeMemRec, ptr %20, i32 0, i32 195
  %22 = load i32, ptr %21, align 8, !tbaa !61
  %23 = icmp eq i32 %22, 0
  br i1 %23, label %24, label %26

24:                                               ; preds = %18
  %25 = load ptr, ptr %8, align 8, !tbaa !7
  call void (ptr, i32, ptr, ptr, ptr, ...) @cvProcessError(ptr noundef %25, i32 noundef -101, ptr noundef @.str.5, ptr noundef @.str.24, ptr noundef @.str.19)
  store i32 -101, ptr %4, align 4
  store i32 1, ptr %14, align 4
  br label %82

26:                                               ; preds = %18
  %27 = load ptr, ptr %8, align 8, !tbaa !7
  %28 = getelementptr inbounds nuw %struct.CVodeMemRec, ptr %27, i32 0, i32 194
  %29 = load ptr, ptr %28, align 8, !tbaa !62
  store ptr %29, ptr %9, align 8, !tbaa !63
  %30 = load i32, ptr %6, align 4, !tbaa !43
  %31 = load ptr, ptr %9, align 8, !tbaa !63
  %32 = getelementptr inbounds nuw %struct.CVadjMemRec, ptr %31, i32 0, i32 6
  %33 = load i32, ptr %32, align 8, !tbaa !64
  %34 = icmp sge i32 %30, %33
  br i1 %34, label %35, label %37

35:                                               ; preds = %26
  %36 = load ptr, ptr %8, align 8, !tbaa !7
  call void (ptr, i32, ptr, ptr, ptr, ...) @cvProcessError(ptr noundef %36, i32 noundef -3, ptr noundef @.str.5, ptr noundef @.str.24, ptr noundef @.str.20)
  store i32 -3, ptr %4, align 4
  store i32 1, ptr %14, align 4
  br label %82

37:                                               ; preds = %26
  %38 = load ptr, ptr %9, align 8, !tbaa !63
  %39 = getelementptr inbounds nuw %struct.CVadjMemRec, ptr %38, i32 0, i32 5
  %40 = load ptr, ptr %39, align 8, !tbaa !69
  store ptr %40, ptr %10, align 8, !tbaa !70
  br label %41

41:                                               ; preds = %51, %37
  %42 = load ptr, ptr %10, align 8, !tbaa !70
  %43 = icmp ne ptr %42, null
  br i1 %43, label %44, label %55

44:                                               ; preds = %41
  %45 = load i32, ptr %6, align 4, !tbaa !43
  %46 = load ptr, ptr %10, align 8, !tbaa !70
  %47 = getelementptr inbounds nuw %struct.CVodeBMemRec, ptr %46, i32 0, i32 0
  %48 = load i32, ptr %47, align 8, !tbaa !71
  %49 = icmp eq i32 %45, %48
  br i1 %49, label %50, label %51

50:                                               ; preds = %44
  br label %55

51:                                               ; preds = %44
  %52 = load ptr, ptr %10, align 8, !tbaa !70
  %53 = getelementptr inbounds nuw %struct.CVodeBMemRec, ptr %52, i32 0, i32 16
  %54 = load ptr, ptr %53, align 8, !tbaa !73
  store ptr %54, ptr %10, align 8, !tbaa !70
  br label %41, !llvm.loop !91

55:                                               ; preds = %50, %41
  %56 = load ptr, ptr %10, align 8, !tbaa !70
  %57 = getelementptr inbounds nuw %struct.CVodeBMemRec, ptr %56, i32 0, i32 2
  %58 = load ptr, ptr %57, align 8, !tbaa !75
  store ptr %58, ptr %12, align 8, !tbaa !3
  %59 = load ptr, ptr %10, align 8, !tbaa !70
  %60 = getelementptr inbounds nuw %struct.CVodeBMemRec, ptr %59, i32 0, i32 10
  %61 = load ptr, ptr %60, align 8, !tbaa !76
  %62 = icmp eq ptr %61, null
  br i1 %62, label %63, label %65

63:                                               ; preds = %55
  %64 = load ptr, ptr %8, align 8, !tbaa !7
  call void (ptr, i32, ptr, ptr, ptr, ...) @cvProcessError(ptr noundef %64, i32 noundef -102, ptr noundef @.str.5, ptr noundef @.str.24, ptr noundef @.str.21)
  store i32 -102, ptr %4, align 4
  store i32 1, ptr %14, align 4
  br label %82

65:                                               ; preds = %55
  %66 = load ptr, ptr %10, align 8, !tbaa !70
  %67 = getelementptr inbounds nuw %struct.CVodeBMemRec, ptr %66, i32 0, i32 10
  %68 = load ptr, ptr %67, align 8, !tbaa !76
  store ptr %68, ptr %11, align 8, !tbaa !77
  %69 = load ptr, ptr %7, align 8, !tbaa !3
  %70 = load ptr, ptr %11, align 8, !tbaa !77
  %71 = getelementptr inbounds nuw %struct.CVDlsMemRecB, ptr %70, i32 0, i32 4
  store ptr %69, ptr %71, align 8, !tbaa !92
  %72 = load ptr, ptr %7, align 8, !tbaa !3
  %73 = icmp ne ptr %72, null
  br i1 %73, label %74, label %77

74:                                               ; preds = %65
  %75 = load ptr, ptr %12, align 8, !tbaa !3
  %76 = call i32 @CVDlsSetBandJacFn(ptr noundef %75, ptr noundef @cvDlsBandJacBSWrapper)
  store i32 %76, ptr %13, align 4, !tbaa !43
  br label %80

77:                                               ; preds = %65
  %78 = load ptr, ptr %12, align 8, !tbaa !3
  %79 = call i32 @CVDlsSetBandJacFn(ptr noundef %78, ptr noundef null)
  store i32 %79, ptr %13, align 4, !tbaa !43
  br label %80

80:                                               ; preds = %77, %74
  %81 = load i32, ptr %13, align 4, !tbaa !43
  store i32 %81, ptr %4, align 4
  store i32 1, ptr %14, align 4
  br label %82

82:                                               ; preds = %80, %63, %35, %24, %17
  call void @llvm.lifetime.end.p0(i64 4, ptr %13) #5
  call void @llvm.lifetime.end.p0(i64 8, ptr %12) #5
  call void @llvm.lifetime.end.p0(i64 8, ptr %11) #5
  call void @llvm.lifetime.end.p0(i64 8, ptr %10) #5
  call void @llvm.lifetime.end.p0(i64 8, ptr %9) #5
  call void @llvm.lifetime.end.p0(i64 8, ptr %8) #5
  %83 = load i32, ptr %4, align 4
  ret i32 %83
}